; Function Attrs: nounwind uwtable
define zeroext i8 @FT_Get_Colorline_Stops(ptr noundef %0, ptr noundef %1, ptr noundef %2) local_unnamed_addr #0 {
  %4 = icmp ne ptr %0, null
  %5 = icmp ne ptr %1, null
  %or.cond = and i1 %4, %5
  %6 = icmp ne ptr %2, null
  %or.cond3 = and i1 %or.cond, %6
  br i1 %or.cond3, label %7, label %18

7:                                                ; preds = %3
  %8 = getelementptr inbounds nuw i8, ptr %0, i64 16
  %9 = load i64, ptr %8, align 8, !tbaa !68
  %10 = and i64 %9, 8
  %.not = icmp eq i64 %10, 0
  br i1 %.not, label %18, label %11

11:                                               ; preds = %7
  %12 = getelementptr inbounds nuw i8, ptr %0, i64 880
  %13 = load ptr, ptr %12, align 8, !tbaa !172
  %14 = getelementptr inbounds nuw i8, ptr %13, i64 312
  %15 = load ptr, ptr %14, align 8, !tbaa !477
  %.not18 = icmp eq ptr %15, null
  br i1 %.not18, label %18, label %16

16:                                               ; preds = %11
  %17 = tail call zeroext i8 %15(ptr noundef nonnull %0, ptr noundef nonnull %1, ptr noundef nonnull %2) #34
  br label %18

18:                                               ; preds = %11, %7, %3, %16
  %.0 = phi i8 [ %17, %16 ], [ 0, %3 ], [ 0, %7 ], [ 0, %11 ]
  ret i8 %.0
}